target datalayout = "e-m:e-p270:32:32-p271:32:32-p272:64:64-i64:64-i128:128-f80:128-n8:16:32:64-S128"
target triple = "x86_64-pc-linux-gnu"

%struct.archive_write_filter = type { i64, ptr, ptr, ptr, ptr, ptr, ptr, ptr, ptr, ptr, ptr, i32, i32, i32, i32 }
%struct.private_data = type { i64, i64, i64, i32, i32, i32, [69001 x i32], [69001 x i16], i32, i32, i32, i32, i32, i8, ptr, i64, i64 }

; Function Attrs: nounwind uwtable
define internal i32 @output_byte(ptr noundef %0, i8 noundef zeroext %1) #0 {
  %3 = alloca i32, align 4
  %4 = alloca ptr, align 8
  %5 = alloca i8, align 1
  %6 = alloca ptr, align 8
  %7 = alloca i32, align 4
  %8 = alloca i32, align 4
  store ptr %0, ptr %4, align 8, !tbaa !11
  store i8 %1, ptr %5, align 1, !tbaa !46
  call void @llvm.lifetime.start.p0(i64 8, ptr %6) #7
  %9 = load ptr, ptr %4, align 8, !tbaa !11
  %10 = getelementptr inbounds nuw %struct.archive_write_filter, ptr %9, i32 0, i32 9
  %11 = load ptr, ptr %10, align 8, !tbaa !48
  store ptr %11, ptr %6, align 8, !tbaa !22
  %12 = load i8, ptr %5, align 1, !tbaa !46
  %13 = load ptr, ptr %6, align 8, !tbaa !22
  %14 = getelementptr inbounds nuw %struct.private_data, ptr %13, i32 0, i32 14
  %15 = load ptr, ptr %14, align 8, !tbaa !32
  %16 = load ptr, ptr %6, align 8, !tbaa !22
  %17 = getelementptr inbounds nuw %struct.private_data, ptr %16, i32 0, i32 16
  %18 = load i64, ptr %17, align 8, !tbaa !47
  %19 = add i64 %18, 1
  store i64 %19, ptr %17, align 8, !tbaa !47
  %20 = getelementptr inbounds nuw i8, ptr %15, i64 %18
  store i8 %12, ptr %20, align 1, !tbaa !46
  %21 = load ptr, ptr %6, align 8, !tbaa !22
  %22 = getelementptr inbounds nuw %struct.private_data, ptr %21, i32 0, i32 1
  %23 = load i64, ptr %22, align 8, !tbaa !40
  %24 = add nsw i64 %23, 1
  store i64 %24, ptr %22, align 8, !tbaa !40
  %25 = load ptr, ptr %6, align 8, !tbaa !22
  %26 = getelementptr inbounds nuw %struct.private_data, ptr %25, i32 0, i32 15
  %27 = load i64, ptr %26, align 8, !tbaa !30
  %28 = load ptr, ptr %6, align 8, !tbaa !22
  %29 = getelementptr inbounds nuw %struct.private_data, ptr %28, i32 0, i32 16
  %30 = load i64, ptr %29, align 8, !tbaa !47
  %31 = icmp eq i64 %27, %30
  br i1 %31, label %32, label %52

32:                                               ; preds = %2
  call void @llvm.lifetime.start.p0(i64 4, ptr %7) #7
  %33 = load ptr, ptr %4, align 8, !tbaa !11
  %34 = getelementptr inbounds nuw %struct.archive_write_filter, ptr %33, i32 0, i32 2
  %35 = load ptr, ptr %34, align 8, !tbaa !57
  %36 = load ptr, ptr %6, align 8, !tbaa !22
  %37 = getelementptr inbounds nuw %struct.private_data, ptr %36, i32 0, i32 14
  %38 = load ptr, ptr %37, align 8, !tbaa !32
  %39 = load ptr, ptr %6, align 8, !tbaa !22
  %40 = getelementptr inbounds nuw %struct.private_data, ptr %39, i32 0, i32 15
  %41 = load i64, ptr %40, align 8, !tbaa !30
  %42 = call i32 @__archive_write_filter(ptr noundef %35, ptr noundef %38, i64 noundef %41)
  store i32 %42, ptr %7, align 4, !tbaa !13
  %43 = load i32, ptr %7, align 4, !tbaa !13
  %44 = icmp ne i32 %43, 0
  br i1 %44, label %45, label %46

45:                                               ; preds = %32
  store i32 -30, ptr %3, align 4
  store i32 1, ptr %8, align 4
  br label %49

46:                                               ; preds = %32
  %47 = load ptr, ptr %6, align 8, !tbaa !22
  %48 = getelementptr inbounds nuw %struct.private_data, ptr %47, i32 0, i32 16
  store i64 0, ptr %48, align 8, !tbaa !47
  store i32 0, ptr %8, align 4
  br label %49

49:                                               ; preds = %46, %45
  call void @llvm.lifetime.end.p0(i64 4, ptr %7) #7
  %50 = load i32, ptr %8, align 4
  switch i32 %50, label %53 [
    i32 0, label %51
  ]

51:                                               ; preds = %49
  br label %52

52:                                               ; preds = %51, %2
  store i32 0, ptr %3, align 4
  store i32 1, ptr %8, align 4
  br label %53

53:                                               ; preds = %52, %49
  call void @llvm.lifetime.end.p0(i64 8, ptr %6) #7
  %54 = load i32, ptr %3, align 4
  ret i32 %54
}

; Function Attrs: nounwind uwtable
define internal i32 @output_flush(ptr noundef %0) #0 {
  %2 = alloca i32, align 4
  %3 = alloca ptr, align 8
  %4 = alloca ptr, align 8
  %5 = alloca i32, align 4
  %6 = alloca i32, align 4
  store ptr %0, ptr %3, align 8, !tbaa !11
  call void @llvm.lifetime.start.p0(i64 8, ptr %4) #7
  %7 = load ptr, ptr %3, align 8, !tbaa !11
  %8 = getelementptr inbounds nuw %struct.archive_write_filter, ptr %7, i32 0, i32 9
  %9 = load ptr, ptr %8, align 8, !tbaa !48
  store ptr %9, ptr %4, align 8, !tbaa !22
  call void @llvm.lifetime.start.p0(i64 4, ptr %5) #7
  %10 = load ptr, ptr %4, align 8, !tbaa !22
  %11 = getelementptr inbounds nuw %struct.private_data, ptr %10, i32 0, i32 12
  %12 = load i32, ptr %11, align 4, !tbaa !39
  %13 = srem i32 %12, 8
  %14 = icmp ne i32 %13, 0
  br i1 %14, label %15, label %34

15:                                               ; preds = %1
  %16 = load ptr, ptr %4, align 8, !tbaa !22
  %17 = getelementptr inbounds nuw %struct.private_data, ptr %16, i32 0, i32 12
  %18 = load i32, ptr %17, align 4, !tbaa !39
  %19 = srem i32 %18, 8
  %20 = add nsw i32 %19, 7
  %21 = sdiv i32 %20, 8
  %22 = load ptr, ptr %4, align 8, !tbaa !22
  %23 = getelementptr inbounds nuw %struct.private_data, ptr %22, i32 0, i32 3
  store i32 %21, ptr %23, align 8, !tbaa !43
  %24 = load ptr, ptr %3, align 8, !tbaa !11
  %25 = load ptr, ptr %4, align 8, !tbaa !22
  %26 = getelementptr inbounds nuw %struct.private_data, ptr %25, i32 0, i32 13
  %27 = load i8, ptr %26, align 8, !tbaa !38
  %28 = call i32 @output_byte(ptr noundef %24, i8 noundef zeroext %27)
  store i32 %28, ptr %5, align 4, !tbaa !13
  %29 = load i32, ptr %5, align 4, !tbaa !13
  %30 = icmp ne i32 %29, 0
  br i1 %30, label %31, label %33

31:                                               ; preds = %15
  %32 = load i32, ptr %5, align 4, !tbaa !13
  store i32 %32, ptr %2, align 4
  store i32 1, ptr %6, align 4
  br label %35

33:                                               ; preds = %15
  br label %34

34:                                               ; preds = %33, %1
  store i32 0, ptr %2, align 4
  store i32 1, ptr %6, align 4
  br label %35

35:                                               ; preds = %34, %31
  call void @llvm.lifetime.end.p0(i64 4, ptr %5) #7
  call void @llvm.lifetime.end.p0(i64 8, ptr %4) #7
  %36 = load i32, ptr %2, align 4
  ret i32 %36
}

; Function Attrs: nounwind uwtable
define internal i32 @archive_compressor_compress_close(ptr noundef %0) #0 {
  %2 = alloca i32, align 4
  %3 = alloca ptr, align 8
  %4 = alloca ptr, align 8
  %5 = alloca i32, align 4
  %6 = alloca i32, align 4
  store ptr %0, ptr %3, align 8, !tbaa !11
  call void @llvm.lifetime.start.p0(i64 8, ptr %4) #7
  %7 = load ptr, ptr %3, align 8, !tbaa !11
  %8 = getelementptr inbounds nuw %struct.archive_write_filter, ptr %7, i32 0, i32 9
  %9 = load ptr, ptr %8, align 8, !tbaa !48
  store ptr %9, ptr %4, align 8, !tbaa !22
  call void @llvm.lifetime.start.p0(i64 4, ptr %5) #7
  %10 = load ptr, ptr %3, align 8, !tbaa !11
  %11 = load ptr, ptr %4, align 8, !tbaa !22
  %12 = getelementptr inbounds nuw %struct.private_data, ptr %11, i32 0, i32 10
  %13 = load i32, ptr %12, align 4, !tbaa !51
  %14 = call i32 @output_code(ptr noundef %10, i32 noundef %13)
  store i32 %14, ptr %5, align 4, !tbaa !13
  %15 = load i32, ptr %5, align 4, !tbaa !13
  %16 = icmp ne i32 %15, 0
  br i1 %16, label %17, label %19

17:                                               ; preds = %1
  %18 = load i32, ptr %5, align 4, !tbaa !13
  store i32 %18, ptr %2, align 4
  store i32 1, ptr %6, align 4
  br label %38

19:                                               ; preds = %1
  %20 = load ptr, ptr %3, align 8, !tbaa !11
  %21 = call i32 @output_flush(ptr noundef %20)
  store i32 %21, ptr %5, align 4, !tbaa !13
  %22 = load i32, ptr %5, align 4, !tbaa !13
  %23 = icmp ne i32 %22, 0
  br i1 %23, label %24, label %26

24:                                               ; preds = %19
  %25 = load i32, ptr %5, align 4, !tbaa !13
  store i32 %25, ptr %2, align 4
  store i32 1, ptr %6, align 4
  br label %38

26:                                               ; preds = %19
  %27 = load ptr, ptr %3, align 8, !tbaa !11
  %28 = getelementptr inbounds nuw %struct.archive_write_filter, ptr %27, i32 0, i32 2
  %29 = load ptr, ptr %28, align 8, !tbaa !57
  %30 = load ptr, ptr %4, align 8, !tbaa !22
  %31 = getelementptr inbounds nuw %struct.private_data, ptr %30, i32 0, i32 14
  %32 = load ptr, ptr %31, align 8, !tbaa !32
  %33 = load ptr, ptr %4, align 8, !tbaa !22
  %34 = getelementptr inbounds nuw %struct.private_data, ptr %33, i32 0, i32 16
  %35 = load i64, ptr %34, align 8, !tbaa !47
  %36 = call i32 @__archive_write_filter(ptr noundef %29, ptr noundef %32, i64 noundef %35)
  store i32 %36, ptr %5, align 4, !tbaa !13
  %37 = load i32, ptr %5, align 4, !tbaa !13
  store i32 %37, ptr %2, align 4
  store i32 1, ptr %6, align 4
  br label %38

38:                                               ; preds = %26, %24, %17
  call void @llvm.lifetime.end.p0(i64 4, ptr %5) #7
  call void @llvm.lifetime.end.p0(i64 8, ptr %4) #7
  %39 = load i32, ptr %2, align 4
  ret i32 %39
}