; Function Attrs: nounwind uwtable
define internal i32 @archive_compressor_compress_close(ptr noundef readonly captures(none) %0) #0 {
  %2 = getelementptr inbounds nuw i8, ptr %0, i64 72
  %3 = load ptr, ptr %2, align 8, !tbaa !36
  %4 = getelementptr inbounds nuw i8, ptr %3, i64 414052
  %5 = load i32, ptr %4, align 4, !tbaa !38
  %6 = tail call fastcc i32 @output_code(ptr noundef %0, i32 noundef %5)
  %.not = icmp eq i32 %6, 0
  br i1 %.not, label %7, label %output_flush.exit

7:                                                ; preds = %1
  %8 = load ptr, ptr %2, align 8, !tbaa !36
  %9 = getelementptr inbounds nuw i8, ptr %8, i64 414060
  %10 = load i32, ptr %9, align 4, !tbaa !46
  %11 = srem i32 %10, 8
  %.not.i = icmp eq i32 %11, 0
  br i1 %.not.i, label %37, label %12

12:                                               ; preds = %7
  %13 = add nsw i32 %11, 7
  %14 = lshr i32 %13, 3
  %15 = getelementptr inbounds nuw i8, ptr %8, i64 24
  store i32 %14, ptr %15, align 8, !tbaa !31
  %16 = getelementptr inbounds nuw i8, ptr %8, i64 414064
  %17 = load i8, ptr %16, align 8, !tbaa !47
  %18 = getelementptr inbounds nuw i8, ptr %8, i64 414072
  %19 = load ptr, ptr %18, align 8, !tbaa !24
  %20 = getelementptr inbounds nuw i8, ptr %8, i64 414088
  %21 = load i64, ptr %20, align 8, !tbaa !35
  %22 = add i64 %21, 1
  store i64 %22, ptr %20, align 8, !tbaa !35
  %23 = getelementptr inbounds nuw i8, ptr %19, i64 %21
  store i8 %17, ptr %23, align 1, !tbaa !34
  %24 = getelementptr inbounds nuw i8, ptr %8, i64 8
  %25 = load i64, ptr %24, align 8, !tbaa !29
  %26 = add nsw i64 %25, 1
  store i64 %26, ptr %24, align 8, !tbaa !29
  %27 = getelementptr inbounds nuw i8, ptr %8, i64 414080
  %28 = load i64, ptr %27, align 8, !tbaa !22
  %29 = load i64, ptr %20, align 8, !tbaa !35
  %30 = icmp eq i64 %28, %29
  br i1 %30, label %31, label %37

31:                                               ; preds = %12
  %32 = getelementptr inbounds nuw i8, ptr %0, i64 16
  %33 = load ptr, ptr %32, align 8, !tbaa !48
  %34 = load ptr, ptr %18, align 8, !tbaa !24
  %35 = tail call i32 @__archive_write_filter(ptr noundef %33, ptr noundef %34, i64 noundef %28) #7
  %.not.i.i = icmp eq i32 %35, 0
  br i1 %.not.i.i, label %36, label %output_flush.exit

36:                                               ; preds = %31
  store i64 0, ptr %20, align 8, !tbaa !35
  br label %37

37:                                               ; preds = %7, %36, %12
  %38 = getelementptr inbounds nuw i8, ptr %0, i64 16
  %39 = load ptr, ptr %38, align 8, !tbaa !48
  %40 = getelementptr inbounds nuw i8, ptr %3, i64 414072
  %41 = load ptr, ptr %40, align 8, !tbaa !24
  %42 = getelementptr inbounds nuw i8, ptr %3, i64 414088
  %43 = load i64, ptr %42, align 8, !tbaa !35
  %44 = tail call i32 @__archive_write_filter(ptr noundef %39, ptr noundef %41, i64 noundef %43) #7
  br label %output_flush.exit

output_flush.exit:                                ; preds = %31, %1, %37
  %.0 = phi i32 [ %44, %37 ], [ %6, %1 ], [ -30, %31 ]
  ret i32 %.0
}